target datalayout = "e-m:e-p270:32:32-p271:32:32-p272:64:64-i64:64-i128:128-f80:128-n8:16:32:64-S128"
target triple = "x86_64-pc-linux-gnu"

%struct.lzma_index_coder = type { i32, i64, ptr, ptr, i64, i64, i64, i64, i32 }

; Function Attrs: nounwind uwtable
define internal i32 @index_decoder_reset(ptr noundef %0, ptr noundef %1, ptr noundef %2, i64 noundef %3) #0 {
  %5 = alloca i32, align 4
  %6 = alloca ptr, align 8
  %7 = alloca ptr, align 8
  %8 = alloca ptr, align 8
  %9 = alloca i64, align 8
  store ptr %0, ptr %6, align 8, !tbaa !9
  store ptr %1, ptr %7, align 8, !tbaa !9
  store ptr %2, ptr %8, align 8, !tbaa !10
  store i64 %3, ptr %9, align 8, !tbaa !12
  %10 = load ptr, ptr %8, align 8, !tbaa !10
  %11 = load ptr, ptr %6, align 8, !tbaa !9
  %12 = getelementptr inbounds nuw %struct.lzma_index_coder, ptr %11, i32 0, i32 3
  store ptr %10, ptr %12, align 8, !tbaa !39
  %13 = load ptr, ptr %8, align 8, !tbaa !10
  store ptr null, ptr %13, align 8, !tbaa !40
  %14 = load ptr, ptr %7, align 8, !tbaa !9
  %15 = call ptr @lzma_index_init(ptr noundef %14) #5
  %16 = load ptr, ptr %6, align 8, !tbaa !9
  %17 = getelementptr inbounds nuw %struct.lzma_index_coder, ptr %16, i32 0, i32 2
  store ptr %15, ptr %17, align 8, !tbaa !20
  %18 = load ptr, ptr %6, align 8, !tbaa !9
  %19 = getelementptr inbounds nuw %struct.lzma_index_coder, ptr %18, i32 0, i32 2
  %20 = load ptr, ptr %19, align 8, !tbaa !20
  %21 = icmp eq ptr %20, null
  br i1 %21, label %22, label %23

22:                                               ; preds = %4
  store i32 5, ptr %5, align 4
  br label %41

23:                                               ; preds = %4
  %24 = load ptr, ptr %6, align 8, !tbaa !9
  %25 = getelementptr inbounds nuw %struct.lzma_index_coder, ptr %24, i32 0, i32 0
  store i32 0, ptr %25, align 8, !tbaa !29
  %26 = load i64, ptr %9, align 8, !tbaa !12
  %27 = icmp ugt i64 1, %26
  br i1 %27, label %28, label %29

28:                                               ; preds = %23
  br label %31

29:                                               ; preds = %23
  %30 = load i64, ptr %9, align 8, !tbaa !12
  br label %31

31:                                               ; preds = %29, %28
  %32 = phi i64 [ 1, %28 ], [ %30, %29 ]
  %33 = load ptr, ptr %6, align 8, !tbaa !9
  %34 = getelementptr inbounds nuw %struct.lzma_index_coder, ptr %33, i32 0, i32 1
  store i64 %32, ptr %34, align 8, !tbaa !33
  %35 = load ptr, ptr %6, align 8, !tbaa !9
  %36 = getelementptr inbounds nuw %struct.lzma_index_coder, ptr %35, i32 0, i32 4
  store i64 0, ptr %36, align 8, !tbaa !32
  %37 = load ptr, ptr %6, align 8, !tbaa !9
  %38 = getelementptr inbounds nuw %struct.lzma_index_coder, ptr %37, i32 0, i32 7
  store i64 0, ptr %38, align 8, !tbaa !31
  %39 = load ptr, ptr %6, align 8, !tbaa !9
  %40 = getelementptr inbounds nuw %struct.lzma_index_coder, ptr %39, i32 0, i32 8
  store i32 0, ptr %40, align 8, !tbaa !36
  store i32 0, ptr %5, align 4
  br label %41

41:                                               ; preds = %31, %22
  %42 = load i32, ptr %5, align 4
  ret i32 %42
}

; Function Attrs: nounwind uwtable
define dso_local i32 @lzma_index_buffer_decode(ptr noundef %0, ptr noundef %1, ptr noundef %2, ptr noundef %3, ptr noundef %4, i64 noundef %5) #0 {
  %7 = alloca i32, align 4
  %8 = alloca ptr, align 8
  %9 = alloca ptr, align 8
  %10 = alloca ptr, align 8
  %11 = alloca ptr, align 8
  %12 = alloca ptr, align 8
  %13 = alloca i64, align 8
  %14 = alloca %struct.lzma_index_coder, align 8
  %15 = alloca i32, align 4
  %16 = alloca i32, align 4
  %17 = alloca i64, align 8
  %18 = alloca i32, align 4
  store ptr %0, ptr %8, align 8, !tbaa !10
  store ptr %1, ptr %9, align 8, !tbaa !26
  store ptr %2, ptr %10, align 8, !tbaa !9
  store ptr %3, ptr %11, align 8, !tbaa !24
  store ptr %4, ptr %12, align 8, !tbaa !26
  store i64 %5, ptr %13, align 8, !tbaa !12
  %19 = load ptr, ptr %8, align 8, !tbaa !10
  %20 = icmp ne ptr %19, null
  br i1 %20, label %21, label %23

21:                                               ; preds = %6
  %22 = load ptr, ptr %8, align 8, !tbaa !10
  store ptr null, ptr %22, align 8, !tbaa !40
  br label %23

23:                                               ; preds = %21, %6
  %24 = load ptr, ptr %8, align 8, !tbaa !10
  %25 = icmp eq ptr %24, null
  br i1 %25, label %40, label %26

26:                                               ; preds = %23
  %27 = load ptr, ptr %9, align 8, !tbaa !26
  %28 = icmp eq ptr %27, null
  br i1 %28, label %40, label %29

29:                                               ; preds = %26
  %30 = load ptr, ptr %11, align 8, !tbaa !24
  %31 = icmp eq ptr %30, null
  br i1 %31, label %40, label %32

32:                                               ; preds = %29
  %33 = load ptr, ptr %12, align 8, !tbaa !26
  %34 = icmp eq ptr %33, null
  br i1 %34, label %40, label %35

35:                                               ; preds = %32
  %36 = load ptr, ptr %12, align 8, !tbaa !26
  %37 = load i64, ptr %36, align 8, !tbaa !12
  %38 = load i64, ptr %13, align 8, !tbaa !12
  %39 = icmp ugt i64 %37, %38
  br i1 %39, label %40, label %41

40:                                               ; preds = %35, %32, %29, %26, %23
  store i32 11, ptr %7, align 4
  br label %90

41:                                               ; preds = %35
  call void @llvm.lifetime.start.p0(i64 72, ptr %14) #5
  br label %42

42:                                               ; preds = %41
  call void @llvm.lifetime.start.p0(i64 4, ptr %15) #5
  %43 = load ptr, ptr %10, align 8, !tbaa !9
  %44 = load ptr, ptr %8, align 8, !tbaa !10
  %45 = load ptr, ptr %9, align 8, !tbaa !26
  %46 = load i64, ptr %45, align 8, !tbaa !12
  %47 = call i32 @index_decoder_reset(ptr noundef %14, ptr noundef %43, ptr noundef %44, i64 noundef %46)
  store i32 %47, ptr %15, align 4, !tbaa !28
  %48 = load i32, ptr %15, align 4, !tbaa !28
  %49 = icmp ne i32 %48, 0
  br i1 %49, label %50, label %52

50:                                               ; preds = %42
  %51 = load i32, ptr %15, align 4, !tbaa !28
  store i32 %51, ptr %7, align 4
  store i32 1, ptr %16, align 4
  br label %53

52:                                               ; preds = %42
  store i32 0, ptr %16, align 4
  br label %53

53:                                               ; preds = %52, %50
  call void @llvm.lifetime.end.p0(i64 4, ptr %15) #5
  %54 = load i32, ptr %16, align 4
  switch i32 %54, label %89 [
    i32 0, label %55
  ]

55:                                               ; preds = %53
  br label %56

56:                                               ; preds = %55
  br label %57

57:                                               ; preds = %56
  call void @llvm.lifetime.start.p0(i64 8, ptr %17) #5
  %58 = load ptr, ptr %12, align 8, !tbaa !26
  %59 = load i64, ptr %58, align 8, !tbaa !12
  store i64 %59, ptr %17, align 8, !tbaa !12
  call void @llvm.lifetime.start.p0(i64 4, ptr %18) #5
  %60 = load ptr, ptr %10, align 8, !tbaa !9
  %61 = load ptr, ptr %11, align 8, !tbaa !24
  %62 = load ptr, ptr %12, align 8, !tbaa !26
  %63 = load i64, ptr %13, align 8, !tbaa !12
  %64 = call i32 @index_decode(ptr noundef %14, ptr noundef %60, ptr noundef %61, ptr noundef %62, i64 noundef %63, ptr noundef null, ptr noundef null, i64 noundef 0, i32 noundef 0)
  store i32 %64, ptr %18, align 4, !tbaa !28
  %65 = load i32, ptr %18, align 4, !tbaa !28
  %66 = icmp eq i32 %65, 1
  br i1 %66, label %67, label %68

67:                                               ; preds = %57
  store i32 0, ptr %18, align 4, !tbaa !28
  br label %87

68:                                               ; preds = %57
  %69 = getelementptr inbounds nuw %struct.lzma_index_coder, ptr %14, i32 0, i32 2
  %70 = load ptr, ptr %69, align 8, !tbaa !20
  %71 = load ptr, ptr %10, align 8, !tbaa !9
  call void @lzma_index_end(ptr noundef %70, ptr noundef %71) #5
  %72 = load i64, ptr %17, align 8, !tbaa !12
  %73 = load ptr, ptr %12, align 8, !tbaa !26
  store i64 %72, ptr %73, align 8, !tbaa !12
  %74 = load i32, ptr %18, align 4, !tbaa !28
  %75 = icmp eq i32 %74, 0
  br i1 %75, label %76, label %77

76:                                               ; preds = %68
  store i32 9, ptr %18, align 4, !tbaa !28
  br label %86

77:                                               ; preds = %68
  %78 = load i32, ptr %18, align 4, !tbaa !28
  %79 = icmp eq i32 %78, 6
  br i1 %79, label %80, label %85

80:                                               ; preds = %77
  %81 = getelementptr inbounds nuw %struct.lzma_index_coder, ptr %14, i32 0, i32 4
  %82 = load i64, ptr %81, align 8, !tbaa !32
  %83 = call i64 @lzma_index_memusage(i64 noundef 1, i64 noundef %82) #5
  %84 = load ptr, ptr %9, align 8, !tbaa !26
  store i64 %83, ptr %84, align 8, !tbaa !12
  br label %85

85:                                               ; preds = %80, %77
  br label %86

86:                                               ; preds = %85, %76
  br label %87

87:                                               ; preds = %86, %67
  %88 = load i32, ptr %18, align 4, !tbaa !28
  store i32 %88, ptr %7, align 4
  store i32 1, ptr %16, align 4
  call void @llvm.lifetime.end.p0(i64 4, ptr %18) #5
  call void @llvm.lifetime.end.p0(i64 8, ptr %17) #5
  br label %89

89:                                               ; preds = %87, %53
  call void @llvm.lifetime.end.p0(i64 72, ptr %14) #5
  br label %90

90:                                               ; preds = %89, %40
  %91 = load i32, ptr %7, align 4
  ret i32 %91
}