; Function Attrs: nounwind uwtable
define dso_local i32 @lzma_index_buffer_decode(ptr noundef %0, ptr noundef %1, ptr noundef %2, ptr noundef %3, ptr noundef %4, i64 noundef %5) local_unnamed_addr #0 {
  %7 = alloca %struct.lzma_index_coder, align 8
  %.not = icmp eq ptr %0, null
  br i1 %.not, label %.thread, label %8

8:                                                ; preds = %6
  store ptr null, ptr %0, align 8, !tbaa !20
  %9 = icmp eq ptr %1, null
  %10 = icmp eq ptr %3, null
  %or.cond3 = or i1 %9, %10
  %11 = icmp eq ptr %4, null
  %or.cond5 = or i1 %or.cond3, %11
  br i1 %or.cond5, label %.thread, label %12

12:                                               ; preds = %8
  %13 = load i64, ptr %4, align 8, !tbaa !26
  %14 = icmp ugt i64 %13, %5
  br i1 %14, label %.thread, label %15

15:                                               ; preds = %12
  call void @llvm.lifetime.start.p0(i64 72, ptr nonnull %7) #6
  %16 = load i64, ptr %1, align 8, !tbaa !26
  %17 = getelementptr inbounds nuw i8, ptr %7, i64 24
  store ptr %0, ptr %17, align 8, !tbaa !19
  store ptr null, ptr %0, align 8, !tbaa !20
  %18 = tail call ptr @lzma_index_init(ptr noundef %2) #6
  %19 = getelementptr inbounds nuw i8, ptr %7, i64 16
  store ptr %18, ptr %19, align 8, !tbaa !14
  %20 = icmp eq ptr %18, null
  br i1 %20, label %index_decoder_reset.exit, label %21

21:                                               ; preds = %15
  store i32 0, ptr %7, align 8, !tbaa !21
  %22 = tail call i64 @llvm.umax.i64(i64 %16, i64 1)
  %23 = getelementptr inbounds nuw i8, ptr %7, i64 8
  store i64 %22, ptr %23, align 8, !tbaa !22
  %24 = getelementptr inbounds nuw i8, ptr %7, i64 32
  store i64 0, ptr %24, align 8, !tbaa !23
  %25 = getelementptr inbounds nuw i8, ptr %7, i64 56
  store i64 0, ptr %25, align 8, !tbaa !24
  %26 = getelementptr inbounds nuw i8, ptr %7, i64 64
  store i32 0, ptr %26, align 8, !tbaa !25
  %27 = load i64, ptr %4, align 8, !tbaa !26
  %28 = call i32 @index_decode(ptr noundef nonnull %7, ptr noundef %2, ptr noundef nonnull %3, ptr noundef nonnull %4, i64 noundef %5, ptr poison, ptr poison, i64 poison, i32 poison)
  %29 = icmp eq i32 %28, 1
  br i1 %29, label %index_decoder_reset.exit, label %30

30:                                               ; preds = %21
  %31 = load ptr, ptr %19, align 8, !tbaa !14
  call void @lzma_index_end(ptr noundef %31, ptr noundef %2) #6
  store i64 %27, ptr %4, align 8, !tbaa !26
  switch i32 %28, label %.fold.split [
    i32 0, label %index_decoder_reset.exit
    i32 6, label %32
  ]

32:                                               ; preds = %30
  %33 = load i64, ptr %24, align 8, !tbaa !23
  %34 = call i64 @lzma_index_memusage(i64 noundef 1, i64 noundef %33) #6
  store i64 %34, ptr %1, align 8, !tbaa !26
  br label %index_decoder_reset.exit

.fold.split:                                      ; preds = %30
  br label %index_decoder_reset.exit

index_decoder_reset.exit:                         ; preds = %15, %32, %21, %.fold.split, %30
  %.2 = phi i32 [ 6, %32 ], [ 0, %21 ], [ 9, %30 ], [ %28, %.fold.split ], [ 5, %15 ]
  call void @llvm.lifetime.end.p0(i64 72, ptr nonnull %7) #6
  br label %.thread

.thread:                                          ; preds = %6, %8, %12, %index_decoder_reset.exit
  %.032 = phi i32 [ %.2, %index_decoder_reset.exit ], [ 11, %12 ], [ 11, %8 ], [ 11, %6 ]
  ret i32 %.032
}